target datalayout = "e-m:e-p270:32:32-p271:32:32-p272:64:64-i64:64-i128:128-f80:128-n8:16:32:64-S128"
target triple = "x86_64-pc-linux-gnu"

%struct.sparse_array_st = type { i32, i64, i64, ptr }
%struct.trampoline_st = type { ptr }

; Function Attrs: nounwind uwtable
define internal void @sa_doall(ptr noundef %0, ptr noundef %1, ptr noundef %2, ptr noundef %3) #0 {
  %5 = alloca ptr, align 8
  %6 = alloca ptr, align 8
  %7 = alloca ptr, align 8
  %8 = alloca ptr, align 8
  %9 = alloca [16 x i32], align 16
  %10 = alloca [16 x ptr], align 16
  %11 = alloca i64, align 8
  %12 = alloca i32, align 4
  %13 = alloca i32, align 4
  %14 = alloca ptr, align 8
  store ptr %0, ptr %5, align 8, !tbaa !3
  store ptr %1, ptr %6, align 8, !tbaa !8
  store ptr %2, ptr %7, align 8, !tbaa !8
  store ptr %3, ptr %8, align 8, !tbaa !8
  call void @llvm.lifetime.start.p0(i64 64, ptr %9) #4
  call void @llvm.lifetime.start.p0(i64 128, ptr %10) #4
  call void @llvm.lifetime.start.p0(i64 8, ptr %11) #4
  store i64 0, ptr %11, align 8, !tbaa !9
  call void @llvm.lifetime.start.p0(i64 4, ptr %12) #4
  store i32 0, ptr %12, align 4, !tbaa !11
  %15 = getelementptr inbounds [16 x i32], ptr %9, i64 0, i64 0
  store i32 0, ptr %15, align 16, !tbaa !11
  %16 = load ptr, ptr %5, align 8, !tbaa !3
  %17 = getelementptr inbounds nuw %struct.sparse_array_st, ptr %16, i32 0, i32 3
  %18 = load ptr, ptr %17, align 8, !tbaa !13
  %19 = getelementptr inbounds [16 x ptr], ptr %10, i64 0, i64 0
  store ptr %18, ptr %19, align 16, !tbaa !8
  br label %20

20:                                               ; preds = %105, %4
  %21 = load i32, ptr %12, align 4, !tbaa !11
  %22 = icmp sge i32 %21, 0
  br i1 %22, label %23, label %106

23:                                               ; preds = %20
  call void @llvm.lifetime.start.p0(i64 4, ptr %13) #4
  %24 = load i32, ptr %12, align 4, !tbaa !11
  %25 = sext i32 %24 to i64
  %26 = getelementptr inbounds [16 x i32], ptr %9, i64 0, i64 %25
  %27 = load i32, ptr %26, align 4, !tbaa !11
  store i32 %27, ptr %13, align 4, !tbaa !11
  call void @llvm.lifetime.start.p0(i64 8, ptr %14) #4
  %28 = load i32, ptr %12, align 4, !tbaa !11
  %29 = sext i32 %28 to i64
  %30 = getelementptr inbounds [16 x ptr], ptr %10, i64 0, i64 %29
  %31 = load ptr, ptr %30, align 8, !tbaa !8
  store ptr %31, ptr %14, align 8, !tbaa !8
  %32 = load i32, ptr %13, align 4, !tbaa !11
  %33 = icmp sge i32 %32, 16
  br i1 %33, label %34, label %48

34:                                               ; preds = %23
  %35 = load ptr, ptr %14, align 8, !tbaa !8
  %36 = icmp ne ptr %35, null
  br i1 %36, label %37, label %43

37:                                               ; preds = %34
  %38 = load ptr, ptr %6, align 8, !tbaa !8
  %39 = icmp ne ptr %38, null
  br i1 %39, label %40, label %43

40:                                               ; preds = %37
  %41 = load ptr, ptr %6, align 8, !tbaa !8
  %42 = load ptr, ptr %14, align 8, !tbaa !8
  call void %41(ptr noundef %42)
  br label %43

43:                                               ; preds = %40, %37, %34
  %44 = load i32, ptr %12, align 4, !tbaa !11
  %45 = add nsw i32 %44, -1
  store i32 %45, ptr %12, align 4, !tbaa !11
  %46 = load i64, ptr %11, align 8, !tbaa !9
  %47 = lshr i64 %46, 4
  store i64 %47, ptr %11, align 8, !tbaa !9
  br label %105

48:                                               ; preds = %23
  %49 = load i32, ptr %13, align 4, !tbaa !11
  %50 = add nsw i32 %49, 1
  %51 = load i32, ptr %12, align 4, !tbaa !11
  %52 = sext i32 %51 to i64
  %53 = getelementptr inbounds [16 x i32], ptr %9, i64 0, i64 %52
  store i32 %50, ptr %53, align 4, !tbaa !11
  %54 = load ptr, ptr %14, align 8, !tbaa !8
  %55 = icmp ne ptr %54, null
  br i1 %55, label %56, label %104

56:                                               ; preds = %48
  %57 = load ptr, ptr %14, align 8, !tbaa !8
  %58 = load i32, ptr %13, align 4, !tbaa !11
  %59 = sext i32 %58 to i64
  %60 = getelementptr inbounds ptr, ptr %57, i64 %59
  %61 = load ptr, ptr %60, align 8, !tbaa !8
  %62 = icmp ne ptr %61, null
  br i1 %62, label %63, label %104

63:                                               ; preds = %56
  %64 = load i64, ptr %11, align 8, !tbaa !9
  %65 = and i64 %64, -16
  %66 = load i32, ptr %13, align 4, !tbaa !11
  %67 = sext i32 %66 to i64
  %68 = or i64 %65, %67
  store i64 %68, ptr %11, align 8, !tbaa !9
  %69 = load i32, ptr %12, align 4, !tbaa !11
  %70 = load ptr, ptr %5, align 8, !tbaa !3
  %71 = getelementptr inbounds nuw %struct.sparse_array_st, ptr %70, i32 0, i32 0
  %72 = load i32, ptr %71, align 8, !tbaa !15
  %73 = sub nsw i32 %72, 1
  %74 = icmp slt i32 %69, %73
  br i1 %74, label %75, label %90

75:                                               ; preds = %63
  %76 = load i32, ptr %12, align 4, !tbaa !11
  %77 = add nsw i32 %76, 1
  store i32 %77, ptr %12, align 4, !tbaa !11
  %78 = sext i32 %77 to i64
  %79 = getelementptr inbounds [16 x i32], ptr %9, i64 0, i64 %78
  store i32 0, ptr %79, align 4, !tbaa !11
  %80 = load ptr, ptr %14, align 8, !tbaa !8
  %81 = load i32, ptr %13, align 4, !tbaa !11
  %82 = sext i32 %81 to i64
  %83 = getelementptr inbounds ptr, ptr %80, i64 %82
  %84 = load ptr, ptr %83, align 8, !tbaa !8
  %85 = load i32, ptr %12, align 4, !tbaa !11
  %86 = sext i32 %85 to i64
  %87 = getelementptr inbounds [16 x ptr], ptr %10, i64 0, i64 %86
  store ptr %84, ptr %87, align 8, !tbaa !8
  %88 = load i64, ptr %11, align 8, !tbaa !9
  %89 = shl i64 %88, 4
  store i64 %89, ptr %11, align 8, !tbaa !9
  br label %103

90:                                               ; preds = %63
  %91 = load ptr, ptr %7, align 8, !tbaa !8
  %92 = icmp ne ptr %91, null
  br i1 %92, label %93, label %102

93:                                               ; preds = %90
  %94 = load ptr, ptr %7, align 8, !tbaa !8
  %95 = load i64, ptr %11, align 8, !tbaa !9
  %96 = load ptr, ptr %14, align 8, !tbaa !8
  %97 = load i32, ptr %13, align 4, !tbaa !11
  %98 = sext i32 %97 to i64
  %99 = getelementptr inbounds ptr, ptr %96, i64 %98
  %100 = load ptr, ptr %99, align 8, !tbaa !8
  %101 = load ptr, ptr %8, align 8, !tbaa !8
  call void %94(i64 noundef %95, ptr noundef %100, ptr noundef %101)
  br label %102

102:                                              ; preds = %93, %90
  br label %103

103:                                              ; preds = %102, %75
  br label %104

104:                                              ; preds = %103, %56, %48
  br label %105

105:                                              ; preds = %104, %43
  call void @llvm.lifetime.end.p0(i64 8, ptr %14) #4
  call void @llvm.lifetime.end.p0(i64 4, ptr %13) #4
  br label %20, !llvm.loop !16

106:                                              ; preds = %20
  call void @llvm.lifetime.end.p0(i64 4, ptr %12) #4
  call void @llvm.lifetime.end.p0(i64 8, ptr %11) #4
  call void @llvm.lifetime.end.p0(i64 128, ptr %10) #4
  call void @llvm.lifetime.end.p0(i64 64, ptr %9) #4
  ret void
}

; Function Attrs: nounwind uwtable
define void @ossl_sa_doall(ptr noundef %0, ptr noundef %1) #0 {
  %3 = alloca ptr, align 8
  %4 = alloca ptr, align 8
  %5 = alloca %struct.trampoline_st, align 8
  store ptr %0, ptr %3, align 8, !tbaa !3
  store ptr %1, ptr %4, align 8, !tbaa !8
  call void @llvm.lifetime.start.p0(i64 8, ptr %5) #4
  %6 = load ptr, ptr %4, align 8, !tbaa !8
  %7 = getelementptr inbounds nuw %struct.trampoline_st, ptr %5, i32 0, i32 0
  store ptr %6, ptr %7, align 8, !tbaa !18
  %8 = load ptr, ptr %3, align 8, !tbaa !3
  %9 = icmp ne ptr %8, null
  br i1 %9, label %10, label %12

10:                                               ; preds = %2
  %11 = load ptr, ptr %3, align 8, !tbaa !3
  call void @sa_doall(ptr noundef %11, ptr noundef null, ptr noundef @trampoline, ptr noundef %5)
  br label %12

12:                                               ; preds = %10, %2
  call void @llvm.lifetime.end.p0(i64 8, ptr %5) #4
  ret void
}