; Function Attrs: nounwind uwtable
define void @ossl_sa_doall(ptr noundef readonly captures(address_is_null) %0, ptr noundef readonly captures(none) %1) local_unnamed_addr #0 {
  %3 = alloca [16 x i32], align 16
  %4 = alloca [16 x ptr], align 16
  %.not = icmp eq ptr %0, null
  br i1 %.not, label %38, label %5

5:                                                ; preds = %2
  call void @llvm.lifetime.start.p0(i64 64, ptr nonnull %3) #5
  call void @llvm.lifetime.start.p0(i64 128, ptr nonnull %4) #5
  store i32 0, ptr %3, align 16, !tbaa !3
  %6 = getelementptr inbounds nuw i8, ptr %0, i64 24
  %7 = load ptr, ptr %6, align 8, !tbaa !7
  store ptr %7, ptr %4, align 16, !tbaa !11
  br label %.split.split.us.i

.split.split.us.i:                                ; preds = %36, %5
  %.042.us45.i = phi i64 [ %.1.us51.i, %36 ], [ 0, %5 ]
  %.03141.us46.i = phi i32 [ %.132.us50.i, %36 ], [ 0, %5 ]
  %8 = zext nneg i32 %.03141.us46.i to i64
  %9 = getelementptr inbounds nuw [16 x i32], ptr %3, i64 0, i64 %8
  %10 = load i32, ptr %9, align 4, !tbaa !3
  %11 = getelementptr inbounds nuw [16 x ptr], ptr %4, i64 0, i64 %8
  %12 = load ptr, ptr %11, align 8, !tbaa !11
  %13 = icmp sgt i32 %10, 15
  br i1 %13, label %33, label %14

14:                                               ; preds = %.split.split.us.i
  %15 = add nsw i32 %10, 1
  store i32 %15, ptr %9, align 4, !tbaa !3
  %.not.us47.i = icmp eq ptr %12, null
  br i1 %.not.us47.i, label %36, label %16

16:                                               ; preds = %14
  %17 = sext i32 %10 to i64
  %18 = getelementptr inbounds ptr, ptr %12, i64 %17
  %19 = load ptr, ptr %18, align 8, !tbaa !11
  %.not39.us48.i = icmp eq ptr %19, null
  br i1 %.not39.us48.i, label %36, label %20

20:                                               ; preds = %16
  %21 = and i64 %.042.us45.i, -16
  %22 = or i64 %21, %17
  %23 = load i32, ptr %0, align 8, !tbaa !12
  %24 = add nsw i32 %23, -1
  %25 = icmp slt i32 %.03141.us46.i, %24
  br i1 %25, label %27, label %26

26:                                               ; preds = %20
  tail call void %1(i64 noundef %22, ptr noundef nonnull %19) #5
  br label %36

27:                                               ; preds = %20
  %28 = add nuw nsw i32 %.03141.us46.i, 1
  %29 = zext nneg i32 %28 to i64
  %30 = getelementptr inbounds nuw [16 x i32], ptr %3, i64 0, i64 %29
  store i32 0, ptr %30, align 4, !tbaa !3
  %31 = getelementptr inbounds nuw [16 x ptr], ptr %4, i64 0, i64 %29
  store ptr %19, ptr %31, align 8, !tbaa !11
  %32 = shl i64 %22, 4
  br label %36

33:                                               ; preds = %.split.split.us.i
  %34 = add nsw i32 %.03141.us46.i, -1
  %35 = lshr i64 %.042.us45.i, 4
  br label %36

36:                                               ; preds = %33, %27, %26, %16, %14
  %.132.us50.i = phi i32 [ %34, %33 ], [ %28, %27 ], [ %.03141.us46.i, %26 ], [ %.03141.us46.i, %16 ], [ %.03141.us46.i, %14 ]
  %.1.us51.i = phi i64 [ %35, %33 ], [ %32, %27 ], [ %22, %26 ], [ %.042.us45.i, %16 ], [ %.042.us45.i, %14 ]
  %37 = icmp sgt i32 %.132.us50.i, -1
  br i1 %37, label %.split.split.us.i, label %sa_doall.exit, !llvm.loop !13

sa_doall.exit:                                    ; preds = %36
  call void @llvm.lifetime.end.p0(i64 128, ptr nonnull %4) #5
  call void @llvm.lifetime.end.p0(i64 64, ptr nonnull %3) #5
  br label %38

38:                                               ; preds = %sa_doall.exit, %2
  ret void
}